target datalayout = "e-m:e-p270:32:32-p271:32:32-p272:64:64-i64:64-i128:128-f80:128-n8:16:32:64-S128"
target triple = "x86_64-pc-linux-gnu"

%struct.lxb_html_tree = type { ptr, ptr, ptr, ptr, ptr, ptr, ptr, %struct.lxb_html_tree_pending_table_t, ptr, i8, i8, i8, i8, i8, i8, ptr, ptr, ptr, i32, i64 }
%struct.lxb_html_tree_pending_table_t = type { ptr, i8 }
%struct.lexbor_array_t = type { ptr, i64, i64 }

; Function Attrs: nounwind uwtable
define hidden void @lxb_html_tree_active_formatting_remove_by_node(ptr noundef %0, ptr noundef %1) #0 {
  %3 = alloca ptr, align 8
  %4 = alloca ptr, align 8
  %5 = alloca i64, align 8
  %6 = alloca ptr, align 8
  %7 = alloca i64, align 8
  store ptr %0, ptr %3, align 8, !tbaa !4
  store ptr %1, ptr %4, align 8, !tbaa !23
  call void @llvm.lifetime.start.p0(i64 8, ptr %5) #6
  call void @llvm.lifetime.start.p0(i64 8, ptr %6) #6
  %8 = load ptr, ptr %3, align 8, !tbaa !4
  %9 = getelementptr inbounds nuw %struct.lxb_html_tree, ptr %8, i32 0, i32 5
  %10 = load ptr, ptr %9, align 8, !tbaa !9
  %11 = getelementptr inbounds nuw %struct.lexbor_array_t, ptr %10, i32 0, i32 0
  %12 = load ptr, ptr %11, align 8, !tbaa !19
  store ptr %12, ptr %6, align 8, !tbaa !21
  call void @llvm.lifetime.start.p0(i64 8, ptr %7) #6
  %13 = load ptr, ptr %3, align 8, !tbaa !4
  %14 = getelementptr inbounds nuw %struct.lxb_html_tree, ptr %13, i32 0, i32 5
  %15 = load ptr, ptr %14, align 8, !tbaa !9
  %16 = getelementptr inbounds nuw %struct.lexbor_array_t, ptr %15, i32 0, i32 2
  %17 = load i64, ptr %16, align 8, !tbaa !22
  store i64 %17, ptr %7, align 8, !tbaa !24
  br label %18

18:                                               ; preds = %54, %2
  %19 = load i64, ptr %7, align 8, !tbaa !24
  %20 = icmp ne i64 %19, 0
  br i1 %20, label %21, label %55

21:                                               ; preds = %18
  %22 = load i64, ptr %7, align 8, !tbaa !24
  %23 = add i64 %22, -1
  store i64 %23, ptr %7, align 8, !tbaa !24
  %24 = load ptr, ptr %6, align 8, !tbaa !21
  %25 = load i64, ptr %7, align 8, !tbaa !24
  %26 = getelementptr inbounds nuw ptr, ptr %24, i64 %25
  %27 = load ptr, ptr %26, align 8, !tbaa !21
  %28 = load ptr, ptr %4, align 8, !tbaa !23
  %29 = icmp eq ptr %27, %28
  br i1 %29, label %30, label %54

30:                                               ; preds = %21
  %31 = load ptr, ptr %3, align 8, !tbaa !4
  %32 = getelementptr inbounds nuw %struct.lxb_html_tree, ptr %31, i32 0, i32 5
  %33 = load ptr, ptr %32, align 8, !tbaa !9
  %34 = getelementptr inbounds nuw %struct.lexbor_array_t, ptr %33, i32 0, i32 2
  %35 = load i64, ptr %34, align 8, !tbaa !22
  %36 = load i64, ptr %7, align 8, !tbaa !24
  %37 = sub i64 %35, %36
  %38 = sub i64 %37, 1
  store i64 %38, ptr %5, align 8, !tbaa !24
  %39 = load ptr, ptr %6, align 8, !tbaa !21
  %40 = load i64, ptr %7, align 8, !tbaa !24
  %41 = getelementptr inbounds nuw ptr, ptr %39, i64 %40
  %42 = load ptr, ptr %6, align 8, !tbaa !21
  %43 = load i64, ptr %7, align 8, !tbaa !24
  %44 = getelementptr inbounds nuw ptr, ptr %42, i64 %43
  %45 = getelementptr inbounds ptr, ptr %44, i64 1
  %46 = load i64, ptr %5, align 8, !tbaa !24
  %47 = mul i64 8, %46
  call void @llvm.memmove.p0.p0.i64(ptr align 8 %41, ptr align 8 %45, i64 %47, i1 false)
  %48 = load ptr, ptr %3, align 8, !tbaa !4
  %49 = getelementptr inbounds nuw %struct.lxb_html_tree, ptr %48, i32 0, i32 5
  %50 = load ptr, ptr %49, align 8, !tbaa !9
  %51 = getelementptr inbounds nuw %struct.lexbor_array_t, ptr %50, i32 0, i32 2
  %52 = load i64, ptr %51, align 8, !tbaa !22
  %53 = add i64 %52, -1
  store i64 %53, ptr %51, align 8, !tbaa !22
  br label %55

54:                                               ; preds = %21
  br label %18

55:                                               ; preds = %30, %18
  call void @llvm.lifetime.end.p0(i64 8, ptr %7) #6
  call void @llvm.lifetime.end.p0(i64 8, ptr %6) #6
  call void @llvm.lifetime.end.p0(i64 8, ptr %5) #6
  ret void
}